target datalayout = "e-m:e-p270:32:32-p271:32:32-p272:64:64-i64:64-i128:128-f80:128-n8:16:32:64-S128"
target triple = "x86_64-pc-linux-gnu"

%struct.auth_ops_t = type { ptr, ptr, ptr, ptr, ptr, ptr, ptr, ptr, ptr, ptr, ptr, ptr, ptr, ptr, ptr, ptr }
%struct.cred_wrapper_t = type { i32, [0 x i8] }

@ops = internal global ptr null, align 8
@.str.25 = private unnamed_addr constant [39 x i8] c"%s: protocol_version %hu not supported\00", align 1
@__func__.auth_g_pack = private unnamed_addr constant [12 x i8] c"auth_g_pack\00", align 1

; Function Attrs: nounwind uwtable
define dso_local i32 @auth_g_pack(ptr noundef %0, ptr noundef %1, i16 noundef zeroext %2) #0 {
  %4 = alloca i32, align 4
  %5 = alloca ptr, align 8
  %6 = alloca ptr, align 8
  %7 = alloca i16, align 2
  %8 = alloca ptr, align 8
  %9 = alloca i32, align 4
  store ptr %0, ptr %5, align 8
  store ptr %1, ptr %6, align 8
  store i16 %2, ptr %7, align 2
  call void @llvm.lifetime.start.p0(i64 8, ptr %8) #6
  %10 = load ptr, ptr %5, align 8
  store ptr %10, ptr %8, align 8
  %11 = load ptr, ptr %8, align 8
  %12 = icmp ne ptr %11, null
  br i1 %12, label %14, label %13

13:                                               ; preds = %3
  store i32 -1, ptr %4, align 4
  store i32 1, ptr %9, align 4
  br label %45

14:                                               ; preds = %3
  %15 = load i16, ptr %7, align 2
  %16 = zext i16 %15 to i32
  %17 = icmp sge i32 %16, 10240
  br i1 %17, label %18, label %41

18:                                               ; preds = %14
  %19 = load ptr, ptr @ops, align 8
  %20 = load ptr, ptr %8, align 8
  %21 = getelementptr inbounds nuw %struct.cred_wrapper_t, ptr %20, i32 0, i32 0
  %22 = load i32, ptr %21, align 4
  %23 = sext i32 %22 to i64
  %24 = getelementptr inbounds %struct.auth_ops_t, ptr %19, i64 %23
  %25 = getelementptr inbounds nuw %struct.auth_ops_t, ptr %24, i32 0, i32 0
  %26 = load ptr, ptr %25, align 8
  %27 = load i32, ptr %26, align 4
  %28 = load ptr, ptr %6, align 8
  call void @pack32(i32 noundef %27, ptr noundef %28)
  %29 = load ptr, ptr @ops, align 8
  %30 = load ptr, ptr %8, align 8
  %31 = getelementptr inbounds nuw %struct.cred_wrapper_t, ptr %30, i32 0, i32 0
  %32 = load i32, ptr %31, align 4
  %33 = sext i32 %32 to i64
  %34 = getelementptr inbounds %struct.auth_ops_t, ptr %29, i64 %33
  %35 = getelementptr inbounds nuw %struct.auth_ops_t, ptr %34, i32 0, i32 10
  %36 = load ptr, ptr %35, align 8
  %37 = load ptr, ptr %5, align 8
  %38 = load ptr, ptr %6, align 8
  %39 = load i16, ptr %7, align 2
  %40 = call i32 %36(ptr noundef %37, ptr noundef %38, i16 noundef zeroext %39)
  store i32 %40, ptr %4, align 4
  store i32 1, ptr %9, align 4
  br label %45

41:                                               ; preds = %14
  %42 = load i16, ptr %7, align 2
  %43 = zext i16 %42 to i32
  %44 = call i32 (ptr, ...) @error(ptr noundef @.str.25, ptr noundef @__func__.auth_g_pack, i32 noundef %43)
  store i32 -1, ptr %4, align 4
  store i32 1, ptr %9, align 4
  br label %45

45:                                               ; preds = %41, %18, %13
  call void @llvm.lifetime.end.p0(i64 8, ptr %8) #6
  %46 = load i32, ptr %4, align 4
  ret i32 %46
}