; Function Attrs: nounwind uwtable
define dso_local i32 @auth_g_pack(ptr noundef %0, ptr noundef %1, i16 noundef zeroext %2) local_unnamed_addr #2 {
  %.not = icmp eq ptr %0, null
  br i1 %.not, label %22, label %4

4:                                                ; preds = %3
  %5 = icmp ugt i16 %2, 10239
  br i1 %5, label %6, label %19

6:                                                ; preds = %4
  %7 = load ptr, ptr @ops, align 8
  %8 = load i32, ptr %0, align 4
  %9 = sext i32 %8 to i64
  %10 = getelementptr inbounds %struct.auth_ops_t, ptr %7, i64 %9
  %11 = load ptr, ptr %10, align 8
  %12 = load i32, ptr %11, align 4
  tail call void @pack32(i32 noundef %12, ptr noundef %1) #12
  %13 = load ptr, ptr @ops, align 8
  %14 = load i32, ptr %0, align 4
  %15 = sext i32 %14 to i64
  %16 = getelementptr inbounds %struct.auth_ops_t, ptr %13, i64 %15, i32 10
  %17 = load ptr, ptr %16, align 8
  %18 = tail call i32 %17(ptr noundef nonnull %0, ptr noundef %1, i16 noundef zeroext %2) #12
  br label %22

19:                                               ; preds = %4
  %20 = zext nneg i16 %2 to i32
  %21 = tail call i32 (ptr, ...) @error(ptr noundef nonnull @.str.25, ptr noundef nonnull @__func__.auth_g_pack, i32 noundef %20) #12
  br label %22

22:                                               ; preds = %3, %19, %6
  %.0 = phi i32 [ %18, %6 ], [ -1, %19 ], [ -1, %3 ]
  ret i32 %.0
}